
greet/greet:     file format elf32-littleriscv


Disassembly of section .text:

00000000 <_start>:
   0:	7ff00113          	li	sp,2047
   4:	034000ef          	jal	ra,38 <main>
   8:	000017b7          	lui	a5,0x1
   c:	80078623          	sb	zero,-2036(a5) # 80c <ADDR_END+0xc>

00000010 <writes>:
  10:	00054783          	lbu	a5,0(a0)
  14:	02078063          	beqz	a5,34 <writes+0x24>
  18:	00001737          	lui	a4,0x1
  1c:	00050793          	mv	a5,a0
  20:	00150513          	addi	a0,a0,1
  24:	0007a783          	lw	a5,0(a5)
  28:	80f72023          	sw	a5,-2048(a4) # 800 <ADDR_END>
  2c:	00054783          	lbu	a5,0(a0)
  30:	fe0796e3          	bnez	a5,1c <writes+0xc>
  34:	00008067          	ret

00000038 <main>:
  38:	ff010113          	addi	sp,sp,-16
  3c:	00112623          	sw	ra,12(sp)
  40:	00812423          	sw	s0,8(sp)
  44:	00912223          	sw	s1,4(sp)
  48:	01212023          	sw	s2,0(sp)
  4c:	12000513          	li	a0,288
  50:	fc1ff0ef          	jal	ra,10 <writes>
  54:	00001937          	lui	s2,0x1
  58:	81690493          	addi	s1,s2,-2026 # 816 <ADDR_END+0x16>
  5c:	0004a483          	lw	s1,0(s1)
  60:	81290413          	addi	s0,s2,-2030
  64:	00040783          	lb	a5,0(s0)
  68:	14800513          	li	a0,328
  6c:	fa5ff0ef          	jal	ra,10 <writes>
  70:	00148493          	addi	s1,s1,1
  74:	82992823          	sw	s1,-2000(s2)
  78:	000e0493          	mv	s1,t3
  7c:	00040783          	lb	a5,0(s0)
  80:	0ff7f793          	zext.b	a5,a5
  84:	00a00713          	li	a4,10
  88:	08e78863          	beq	a5,a4,118 <main+0xe0>
  8c:	00000713          	li	a4,0
  90:	00040613          	mv	a2,s0
  94:	00a00593          	li	a1,10
  98:	00e486b3          	add	a3,s1,a4
  9c:	00f68023          	sb	a5,0(a3)
  a0:	00170713          	addi	a4,a4,1
  a4:	00060783          	lb	a5,0(a2)
  a8:	0ff7f793          	zext.b	a5,a5
  ac:	feb796e3          	bne	a5,a1,98 <main+0x60>
  b0:	00e48733          	add	a4,s1,a4
  b4:	00000793          	li	a5,0
  b8:	00f70023          	sb	a5,0(a4)
  bc:	15c00513          	li	a0,348
  c0:	f51ff0ef          	jal	ra,10 <writes>
  c4:	00048783          	lb	a5,0(s1)
  c8:	0ff7f793          	zext.b	a5,a5
  cc:	02078063          	beqz	a5,ec <main+0xb4>
  d0:	00148713          	addi	a4,s1,1
  d4:	000016b7          	lui	a3,0x1
  d8:	80f6a023          	sw	a5,-2048(a3) # 800 <ADDR_END>
  dc:	00070783          	lb	a5,0(a4)
  e0:	0ff7f793          	zext.b	a5,a5
  e4:	00170713          	addi	a4,a4,1
  e8:	fe0798e3          	bnez	a5,d8 <main+0xa0>
  ec:	16800513          	li	a0,360
  f0:	f21ff0ef          	jal	ra,10 <writes>
  f4:	000017b7          	lui	a5,0x1
  f8:	8297aa23          	sw	s1,-1996(a5) # 834 <ADDR_END+0x34>
  fc:	00000513          	li	a0,0
 100:	00c12083          	lw	ra,12(sp)
 104:	00812403          	lw	s0,8(sp)
 108:	00412483          	lw	s1,4(sp)
 10c:	00012903          	lw	s2,0(sp)
 110:	01010113          	addi	sp,sp,16
 114:	00008067          	ret
 118:	00000713          	li	a4,0
 11c:	f95ff06f          	j	b0 <main+0x78>
